target datalayout = "e-m:e-p270:32:32-p271:32:32-p272:64:64-i64:64-i128:128-f80:128-n8:16:32:64-S128"
target triple = "x86_64-pc-linux-gnu"

%struct.MMSHContext = type { %struct.MMSContext, [1024 x i8], i32, i32 }
%struct.MMSContext = type { ptr, ptr, ptr, [512 x i8], [65536 x i8], ptr, i32, ptr, i32, i32, i32, i32, i32, i32 }

@.str.19 = private unnamed_addr constant [33 x i8] c"Read data packet header failed!\0A\00", align 1
@.str.20 = private unnamed_addr constant [23 x i8] c"Strange chunk type %d\0A\00", align 1
@.str.21 = private unnamed_addr constant [25 x i8] c"Read ext header failed!\0A\00", align 1

; Function Attrs: nounwind uwtable
define internal i32 @get_chunk_header(ptr noundef %0, ptr noundef %1) #0 {
  %3 = alloca i32, align 4
  %4 = alloca ptr, align 8
  %5 = alloca ptr, align 8
  %6 = alloca ptr, align 8
  %7 = alloca [4 x i8], align 1
  %8 = alloca [8 x i8], align 1
  %9 = alloca i32, align 4
  %10 = alloca i32, align 4
  %11 = alloca i32, align 4
  %12 = alloca i32, align 4
  %13 = alloca i32, align 4
  store ptr %0, ptr %4, align 8, !tbaa !19
  store ptr %1, ptr %5, align 8, !tbaa !48
  call void @llvm.lifetime.start.p0(i64 8, ptr %6) #5
  %14 = load ptr, ptr %4, align 8, !tbaa !19
  %15 = getelementptr inbounds nuw %struct.MMSHContext, ptr %14, i32 0, i32 0
  store ptr %15, ptr %6, align 8, !tbaa !21
  call void @llvm.lifetime.start.p0(i64 4, ptr %7) #5
  call void @llvm.lifetime.start.p0(i64 8, ptr %8) #5
  call void @llvm.lifetime.start.p0(i64 4, ptr %9) #5
  call void @llvm.lifetime.start.p0(i64 4, ptr %10) #5
  call void @llvm.lifetime.start.p0(i64 4, ptr %11) #5
  call void @llvm.lifetime.start.p0(i64 4, ptr %12) #5
  %16 = load ptr, ptr %6, align 8, !tbaa !21
  %17 = getelementptr inbounds nuw %struct.MMSContext, ptr %16, i32 0, i32 0
  %18 = load ptr, ptr %17, align 8, !tbaa !39
  %19 = getelementptr inbounds [4 x i8], ptr %7, i64 0, i64 0
  %20 = call i32 @ffurl_read_complete(ptr noundef %18, ptr noundef %19, i32 noundef 4)
  store i32 %20, ptr %11, align 4, !tbaa !11
  %21 = load i32, ptr %11, align 4, !tbaa !11
  %22 = icmp ne i32 %21, 4
  br i1 %22, label %23, label %24

23:                                               ; preds = %2
  call void (ptr, i32, ptr, ...) @av_log(ptr noundef null, i32 noundef 16, ptr noundef @.str.19)
  store i32 -5, ptr %3, align 4
  store i32 1, ptr %13, align 4
  br label %65

24:                                               ; preds = %2
  %25 = getelementptr inbounds [4 x i8], ptr %7, i64 0, i64 0
  %26 = load i16, ptr %25, align 1, !tbaa !50
  %27 = zext i16 %26 to i32
  store i32 %27, ptr %9, align 4, !tbaa !11
  %28 = getelementptr inbounds [4 x i8], ptr %7, i64 0, i64 0
  %29 = getelementptr inbounds i8, ptr %28, i64 2
  %30 = load i16, ptr %29, align 1, !tbaa !50
  %31 = zext i16 %30 to i32
  store i32 %31, ptr %10, align 4, !tbaa !11
  %32 = load i32, ptr %9, align 4, !tbaa !11
  switch i32 %32, label %35 [
    i32 17700, label %33
    i32 17188, label %33
    i32 18468, label %34
    i32 17444, label %34
  ]

33:                                               ; preds = %24, %24
  store i32 4, ptr %12, align 4, !tbaa !11
  br label %37

34:                                               ; preds = %24, %24
  store i32 8, ptr %12, align 4, !tbaa !11
  br label %37

35:                                               ; preds = %24
  %36 = load i32, ptr %9, align 4, !tbaa !11
  call void (ptr, i32, ptr, ...) @av_log(ptr noundef null, i32 noundef 16, ptr noundef @.str.20, i32 noundef %36)
  store i32 -1094995529, ptr %3, align 4
  store i32 1, ptr %13, align 4
  br label %65

37:                                               ; preds = %34, %33
  %38 = load ptr, ptr %6, align 8, !tbaa !21
  %39 = getelementptr inbounds nuw %struct.MMSContext, ptr %38, i32 0, i32 0
  %40 = load ptr, ptr %39, align 8, !tbaa !39
  %41 = getelementptr inbounds [8 x i8], ptr %8, i64 0, i64 0
  %42 = load i32, ptr %12, align 4, !tbaa !11
  %43 = call i32 @ffurl_read_complete(ptr noundef %40, ptr noundef %41, i32 noundef %42)
  store i32 %43, ptr %11, align 4, !tbaa !11
  %44 = load i32, ptr %11, align 4, !tbaa !11
  %45 = load i32, ptr %12, align 4, !tbaa !11
  %46 = icmp ne i32 %44, %45
  br i1 %46, label %47, label %48

47:                                               ; preds = %37
  call void (ptr, i32, ptr, ...) @av_log(ptr noundef null, i32 noundef 16, ptr noundef @.str.21)
  store i32 -5, ptr %3, align 4
  store i32 1, ptr %13, align 4
  br label %65

48:                                               ; preds = %37
  %49 = load i32, ptr %10, align 4, !tbaa !11
  %50 = load i32, ptr %12, align 4, !tbaa !11
  %51 = sub nsw i32 %49, %50
  %52 = load ptr, ptr %5, align 8, !tbaa !48
  store i32 %51, ptr %52, align 4, !tbaa !11
  %53 = load i32, ptr %9, align 4, !tbaa !11
  %54 = icmp eq i32 %53, 17700
  br i1 %54, label %58, label %55

55:                                               ; preds = %48
  %56 = load i32, ptr %9, align 4, !tbaa !11
  %57 = icmp eq i32 %56, 17444
  br i1 %57, label %58, label %63

58:                                               ; preds = %55, %48
  %59 = getelementptr inbounds [8 x i8], ptr %8, i64 0, i64 0
  %60 = load i32, ptr %59, align 1, !tbaa !50
  %61 = load ptr, ptr %4, align 8, !tbaa !19
  %62 = getelementptr inbounds nuw %struct.MMSHContext, ptr %61, i32 0, i32 3
  store i32 %60, ptr %62, align 4, !tbaa !31
  br label %63

63:                                               ; preds = %58, %55
  %64 = load i32, ptr %9, align 4, !tbaa !11
  store i32 %64, ptr %3, align 4
  store i32 1, ptr %13, align 4
  br label %65

65:                                               ; preds = %63, %47, %35, %23
  call void @llvm.lifetime.end.p0(i64 4, ptr %12) #5
  call void @llvm.lifetime.end.p0(i64 4, ptr %11) #5
  call void @llvm.lifetime.end.p0(i64 4, ptr %10) #5
  call void @llvm.lifetime.end.p0(i64 4, ptr %9) #5
  call void @llvm.lifetime.end.p0(i64 8, ptr %8) #5
  call void @llvm.lifetime.end.p0(i64 4, ptr %7) #5
  call void @llvm.lifetime.end.p0(i64 8, ptr %6) #5
  %66 = load i32, ptr %3, align 4
  ret i32 %66
}