; Function Attrs: nounwind uwtable
define internal fastcc range(i32 -1094995529, 65536) i32 @get_chunk_header(ptr noundef captures(none) %0, ptr noundef nonnull writeonly captures(none) %1) unnamed_addr #0 {
  %3 = alloca [4 x i8], align 2
  %4 = alloca [8 x i8], align 4
  call void @llvm.lifetime.start.p0(i64 4, ptr nonnull %3) #7
  call void @llvm.lifetime.start.p0(i64 8, ptr nonnull %4) #7
  %5 = load ptr, ptr %0, align 8, !tbaa !33
  %6 = call i32 @ffurl_read_complete(ptr noundef %5, ptr noundef nonnull %3, i32 noundef 4) #7
  %.not = icmp eq i32 %6, 4
  br i1 %.not, label %8, label %7

7:                                                ; preds = %2
  call void (ptr, i32, ptr, ...) @av_log(ptr noundef null, i32 noundef 16, ptr noundef nonnull @.str.19) #7
  br label %28

8:                                                ; preds = %2
  %9 = load i16, ptr %3, align 2, !tbaa !41
  %10 = zext i16 %9 to i32
  %11 = getelementptr inbounds nuw i8, ptr %3, i64 2
  %12 = load i16, ptr %11, align 2, !tbaa !41
  %13 = zext i16 %12 to i32
  %14 = add nsw i32 %10, -17188
  %15 = call i32 @llvm.fshl.i32(i32 %14, i32 %14, i32 24)
  %16 = icmp ult i32 %15, 6
  %switch.maskindex = trunc i32 %15 to i8
  %switch.shifted = lshr i8 39, %switch.maskindex
  %switch.lobit = trunc i8 %switch.shifted to i1
  %or.cond19 = select i1 %16, i1 %switch.lobit, i1 false
  br i1 %or.cond19, label %switch.lookup, label %17

17:                                               ; preds = %8
  call void (ptr, i32, ptr, ...) @av_log(ptr noundef null, i32 noundef 16, ptr noundef nonnull @.str.20, i32 noundef %10) #7
  br label %28

switch.lookup:                                    ; preds = %8
  %18 = zext nneg i32 %15 to i64
  %switch.gep = getelementptr inbounds nuw [6 x i32], ptr @switch.table.get_chunk_header, i64 0, i64 %18
  %switch.load = load i32, ptr %switch.gep, align 4
  %19 = load ptr, ptr %0, align 8, !tbaa !33
  %20 = call i32 @ffurl_read_complete(ptr noundef %19, ptr noundef nonnull %4, i32 noundef %switch.load) #7
  %.not18 = icmp eq i32 %20, %switch.load
  br i1 %.not18, label %22, label %21

21:                                               ; preds = %switch.lookup
  call void (ptr, i32, ptr, ...) @av_log(ptr noundef null, i32 noundef 16, ptr noundef nonnull @.str.21) #7
  br label %28

22:                                               ; preds = %switch.lookup
  %23 = sub nsw i32 %13, %switch.load
  store i32 %23, ptr %1, align 4, !tbaa !21
  %24 = and i16 %9, -257
  %or.cond = icmp eq i16 %24, 17444
  br i1 %or.cond, label %25, label %28

25:                                               ; preds = %22
  %26 = load i32, ptr %4, align 4, !tbaa !41
  %27 = getelementptr inbounds nuw i8, ptr %0, i64 67148
  store i32 %26, ptr %27, align 4, !tbaa !22
  br label %28

28:                                               ; preds = %25, %22, %21, %17, %7
  %.017 = phi i32 [ -5, %7 ], [ -1094995529, %17 ], [ -5, %21 ], [ %10, %22 ], [ %10, %25 ]
  call void @llvm.lifetime.end.p0(i64 8, ptr nonnull %4) #7
  call void @llvm.lifetime.end.p0(i64 4, ptr nonnull %3) #7
  ret i32 %.017
}